target datalayout = "e-m:e-p270:32:32-p271:32:32-p272:64:64-i64:64-i128:128-f80:128-n8:16:32:64-S128"
target triple = "x86_64-pc-linux-gnu"

%struct.Vec_Str_t_ = type { i32, i32, ptr }

@.str.16 = private unnamed_addr constant [30 x i8] c"Cannot open input file \22%s\22.\0A\00", align 1
@.str.17 = private unnamed_addr constant [33 x i8] c"Read %d gates from exclude file\0A\00", align 1

; Function Attrs: inlinehint nounwind uwtable
define internal void @Vec_StrFree(ptr noundef %0) #7 {
  %2 = alloca ptr, align 8
  store ptr %0, ptr %2, align 8, !tbaa !36
  %3 = load ptr, ptr %2, align 8, !tbaa !36
  %4 = getelementptr inbounds nuw %struct.Vec_Str_t_, ptr %3, i32 0, i32 2
  %5 = load ptr, ptr %4, align 8, !tbaa !41
  %6 = icmp ne ptr %5, null
  br i1 %6, label %7, label %13

7:                                                ; preds = %1
  %8 = load ptr, ptr %2, align 8, !tbaa !36
  %9 = getelementptr inbounds nuw %struct.Vec_Str_t_, ptr %8, i32 0, i32 2
  %10 = load ptr, ptr %9, align 8, !tbaa !41
  call void @free(ptr noundef %10) #9
  %11 = load ptr, ptr %2, align 8, !tbaa !36
  %12 = getelementptr inbounds nuw %struct.Vec_Str_t_, ptr %11, i32 0, i32 2
  store ptr null, ptr %12, align 8, !tbaa !41
  br label %14

13:                                               ; preds = %1
  br label %14

14:                                               ; preds = %13, %7
  %15 = load ptr, ptr %2, align 8, !tbaa !36
  %16 = icmp ne ptr %15, null
  br i1 %16, label %17, label %19

17:                                               ; preds = %14
  %18 = load ptr, ptr %2, align 8, !tbaa !36
  call void @free(ptr noundef %18) #9
  store ptr null, ptr %2, align 8, !tbaa !36
  br label %20

19:                                               ; preds = %14
  br label %20

20:                                               ; preds = %19, %17
  ret void
}

; Function Attrs: inlinehint nounwind uwtable
define internal ptr @Vec_StrAllocArray(ptr noundef %0, i32 noundef %1) #7 {
  %3 = alloca ptr, align 8
  %4 = alloca i32, align 4
  %5 = alloca ptr, align 8
  store ptr %0, ptr %3, align 8, !tbaa !8
  store i32 %1, ptr %4, align 4, !tbaa !10
  call void @llvm.lifetime.start.p0(i64 8, ptr %5) #9
  %6 = call noalias ptr @malloc(i64 noundef 16) #11
  store ptr %6, ptr %5, align 8, !tbaa !36
  %7 = load i32, ptr %4, align 4, !tbaa !10
  %8 = load ptr, ptr %5, align 8, !tbaa !36
  %9 = getelementptr inbounds nuw %struct.Vec_Str_t_, ptr %8, i32 0, i32 1
  store i32 %7, ptr %9, align 4, !tbaa !43
  %10 = load i32, ptr %4, align 4, !tbaa !10
  %11 = load ptr, ptr %5, align 8, !tbaa !36
  %12 = getelementptr inbounds nuw %struct.Vec_Str_t_, ptr %11, i32 0, i32 0
  store i32 %10, ptr %12, align 8, !tbaa !66
  %13 = load ptr, ptr %3, align 8, !tbaa !8
  %14 = load ptr, ptr %5, align 8, !tbaa !36
  %15 = getelementptr inbounds nuw %struct.Vec_Str_t_, ptr %14, i32 0, i32 2
  store ptr %13, ptr %15, align 8, !tbaa !41
  %16 = load ptr, ptr %5, align 8, !tbaa !36
  call void @llvm.lifetime.end.p0(i64 8, ptr %5) #9
  ret ptr %16
}

; Function Attrs: nounwind uwtable
define i32 @Map_LibraryReadTree(ptr noundef %0, ptr noundef %1, ptr noundef %2, ptr noundef %3) #0 {
  %5 = alloca i32, align 4
  %6 = alloca ptr, align 8
  %7 = alloca ptr, align 8
  %8 = alloca ptr, align 8
  %9 = alloca ptr, align 8
  %10 = alloca ptr, align 8
  %11 = alloca ptr, align 8
  %12 = alloca i32, align 4
  %13 = alloca i32, align 4
  %14 = alloca ptr, align 8
  %15 = alloca ptr, align 8
  %16 = alloca i32, align 4
  store ptr %0, ptr %6, align 8, !tbaa !3
  store ptr %1, ptr %7, align 8, !tbaa !46
  store ptr %2, ptr %8, align 8, !tbaa !8
  store ptr %3, ptr %9, align 8, !tbaa !8
  call void @llvm.lifetime.start.p0(i64 8, ptr %10) #9
  call void @llvm.lifetime.start.p0(i64 8, ptr %11) #9
  call void @llvm.lifetime.start.p0(i64 4, ptr %12) #9
  call void @llvm.lifetime.start.p0(i64 4, ptr %13) #9
  call void @llvm.lifetime.start.p0(i64 8, ptr %14) #9
  call void @llvm.lifetime.start.p0(i64 8, ptr %15) #9
  store ptr null, ptr %15, align 8, !tbaa !62
  %17 = load ptr, ptr %8, align 8, !tbaa !8
  %18 = call ptr @Mio_ReadFile(ptr noundef %17, i32 noundef 0)
  store ptr %18, ptr %10, align 8, !tbaa !8
  %19 = load ptr, ptr %10, align 8, !tbaa !8
  %20 = icmp eq ptr %19, null
  br i1 %20, label %21, label %24

21:                                               ; preds = %4
  %22 = load ptr, ptr %8, align 8, !tbaa !8
  %23 = call i32 (ptr, ...) @printf(ptr noundef @.str.16, ptr noundef %22)
  store i32 0, ptr %5, align 4
  store i32 1, ptr %16, align 4
  br label %61

24:                                               ; preds = %4
  %25 = load ptr, ptr %10, align 8, !tbaa !8
  %26 = load ptr, ptr %10, align 8, !tbaa !8
  %27 = call i64 @strlen(ptr noundef %26) #10
  %28 = trunc i64 %27 to i32
  %29 = call ptr @Vec_StrAllocArray(ptr noundef %25, i32 noundef %28)
  store ptr %29, ptr %11, align 8, !tbaa !36
  %30 = load ptr, ptr %9, align 8, !tbaa !8
  %31 = icmp ne ptr %30, null
  br i1 %31, label %32, label %47

32:                                               ; preds = %24
  %33 = call ptr (...) @Abc_FrameGetGlobalFrame()
  store ptr %33, ptr %14, align 8, !tbaa !64
  %34 = call ptr @st__init_table(ptr noundef @strcmp, ptr noundef @st__strhash)
  store ptr %34, ptr %15, align 8, !tbaa !62
  %35 = load ptr, ptr %9, align 8, !tbaa !8
  %36 = load ptr, ptr %15, align 8, !tbaa !62
  %37 = call i32 @Mio_LibraryReadExclude(ptr noundef %35, ptr noundef %36)
  store i32 %37, ptr %13, align 4, !tbaa !10
  %38 = icmp eq i32 %37, -1
  br i1 %38, label %39, label %42

39:                                               ; preds = %32
  %40 = load ptr, ptr %15, align 8, !tbaa !62
  call void @st__free_table(ptr noundef %40)
  store ptr null, ptr %15, align 8, !tbaa !62
  %41 = load ptr, ptr %11, align 8, !tbaa !36
  call void @Vec_StrFree(ptr noundef %41)
  store i32 0, ptr %5, align 4
  store i32 1, ptr %16, align 4
  br label %61

42:                                               ; preds = %32
  %43 = load ptr, ptr %14, align 8, !tbaa !64
  %44 = call ptr @Abc_FrameReadOut(ptr noundef %43)
  %45 = load i32, ptr %13, align 4, !tbaa !10
  %46 = call i32 (ptr, ptr, ...) @fprintf(ptr noundef %44, ptr noundef @.str.17, i32 noundef %45) #9
  br label %47

47:                                               ; preds = %42, %24
  %48 = load ptr, ptr %6, align 8, !tbaa !3
  %49 = load ptr, ptr %7, align 8, !tbaa !46
  %50 = load ptr, ptr %11, align 8, !tbaa !36
  %51 = load ptr, ptr %8, align 8, !tbaa !8
  %52 = call i32 @Map_LibraryReadFileTreeStr(ptr noundef %48, ptr noundef %49, ptr noundef %50, ptr noundef %51)
  store i32 %52, ptr %12, align 4, !tbaa !10
  %53 = load ptr, ptr %11, align 8, !tbaa !36
  call void @Vec_StrFree(ptr noundef %53)
  %54 = load i32, ptr %12, align 4, !tbaa !10
  %55 = icmp eq i32 %54, 0
  br i1 %55, label %56, label %57

56:                                               ; preds = %47
  store i32 0, ptr %5, align 4
  store i32 1, ptr %16, align 4
  br label %61

57:                                               ; preds = %47
  %58 = load ptr, ptr %6, align 8, !tbaa !3
  %59 = load ptr, ptr %15, align 8, !tbaa !62
  %60 = call i32 @Map_LibraryDeriveGateInfo(ptr noundef %58, ptr noundef %59)
  store i32 %60, ptr %5, align 4
  store i32 1, ptr %16, align 4
  br label %61

61:                                               ; preds = %57, %56, %39, %21
  call void @llvm.lifetime.end.p0(i64 8, ptr %15) #9
  call void @llvm.lifetime.end.p0(i64 8, ptr %14) #9
  call void @llvm.lifetime.end.p0(i64 4, ptr %13) #9
  call void @llvm.lifetime.end.p0(i64 4, ptr %12) #9
  call void @llvm.lifetime.end.p0(i64 8, ptr %11) #9
  call void @llvm.lifetime.end.p0(i64 8, ptr %10) #9
  %62 = load i32, ptr %5, align 4
  ret i32 %62
}