; Function Attrs: nounwind uwtable
define range(i32 0, 2) i32 @Map_LibraryReadTree(ptr noundef %0, ptr noundef %1, ptr noundef %2, ptr noundef %3) local_unnamed_addr #0 {
  %5 = tail call ptr @Mio_ReadFile(ptr noundef %2, i32 noundef 0) #16
  %6 = icmp eq ptr %5, null
  br i1 %6, label %7, label %9

7:                                                ; preds = %4
  %8 = tail call i32 (ptr, ...) @printf(ptr noundef nonnull dereferenceable(1) @.str.16, ptr noundef %2)
  br label %27

9:                                                ; preds = %4
  %10 = tail call i64 @strlen(ptr noundef nonnull dereferenceable(1) %5) #17
  %11 = trunc i64 %10 to i32
  %12 = tail call noalias dereferenceable_or_null(16) ptr @malloc(i64 noundef 16) #18
  %13 = getelementptr inbounds nuw i8, ptr %12, i64 4
  store i32 %11, ptr %13, align 4, !tbaa !35
  store i32 %11, ptr %12, align 8, !tbaa !52
  %14 = getelementptr inbounds nuw i8, ptr %12, i64 8
  store ptr %5, ptr %14, align 8, !tbaa !33
  %.not = icmp eq ptr %3, null
  br i1 %.not, label %Vec_StrFree.exit25, label %15

15:                                               ; preds = %9
  %16 = tail call ptr (...) @Abc_FrameGetGlobalFrame() #16
  %17 = tail call ptr @st__init_table(ptr noundef nonnull @strcmp, ptr noundef nonnull @st__strhash) #16
  %18 = tail call i32 @Mio_LibraryReadExclude(ptr noundef nonnull %3, ptr noundef %17) #16
  %19 = icmp eq i32 %18, -1
  br i1 %19, label %Vec_StrFree.exit, label %20

Vec_StrFree.exit:                                 ; preds = %15
  tail call void @st__free_table(ptr noundef %17) #16
  tail call void @free(ptr noundef nonnull %5) #16
  tail call void @free(ptr noundef nonnull %12) #16
  br label %27

20:                                               ; preds = %15
  %21 = tail call ptr @Abc_FrameReadOut(ptr noundef %16) #16
  %22 = tail call i32 (ptr, ptr, ...) @fprintf(ptr noundef %21, ptr noundef nonnull @.str.17, i32 noundef %18) #16
  br label %Vec_StrFree.exit25

Vec_StrFree.exit25:                               ; preds = %20, %9
  %.0 = phi ptr [ %17, %20 ], [ null, %9 ]
  %23 = tail call i32 @Map_LibraryReadFileTreeStr(ptr noundef %0, ptr noundef %1, ptr noundef nonnull %12, ptr noundef %2)
  tail call void @free(ptr noundef nonnull %5) #16
  tail call void @free(ptr noundef nonnull %12) #16
  %24 = icmp eq i32 %23, 0
  br i1 %24, label %27, label %25

25:                                               ; preds = %Vec_StrFree.exit25
  %26 = tail call i32 @Map_LibraryDeriveGateInfo(ptr noundef %0, ptr noundef %.0)
  br label %27

27:                                               ; preds = %Vec_StrFree.exit25, %25, %Vec_StrFree.exit, %7
  %.020 = phi i32 [ 0, %7 ], [ 0, %Vec_StrFree.exit ], [ %26, %25 ], [ 0, %Vec_StrFree.exit25 ]
  ret i32 %.020
}